target datalayout = "e-m:e-p270:32:32-p271:32:32-p272:64:64-i64:64-i128:128-f80:128-n8:16:32:64-S128"
target triple = "x86_64-pc-linux-gnu"

%struct.yyjson_alc = type { ptr, ptr, ptr, ptr }
%struct.yyjson_str_pool = type { ptr, ptr, i64, i64, ptr }
%struct.yyjson_val_pool = type { ptr, ptr, i64, i64, ptr }
%struct.yyjson_mut_doc = type { ptr, %struct.yyjson_alc, %struct.yyjson_str_pool, %struct.yyjson_val_pool }

@YYJSON_DEFAULT_ALC = internal constant %struct.yyjson_alc { ptr @default_malloc, ptr @default_realloc, ptr @default_free, ptr null }, align 8

; Function Attrs: nounwind uwtable
define dso_local ptr @yyjson_mut_doc_new(ptr noundef %0) #0 {
  %2 = alloca ptr, align 8
  %3 = alloca ptr, align 8
  %4 = alloca ptr, align 8
  %5 = alloca i32, align 4
  store ptr %0, ptr %3, align 8, !tbaa !4
  call void @llvm.lifetime.start.p0(i64 8, ptr %4) #13
  %6 = load ptr, ptr %3, align 8, !tbaa !4
  %7 = icmp ne ptr %6, null
  br i1 %7, label %9, label %8

8:                                                ; preds = %1
  store ptr @YYJSON_DEFAULT_ALC, ptr %3, align 8, !tbaa !4
  br label %9

9:                                                ; preds = %8, %1
  %10 = load ptr, ptr %3, align 8, !tbaa !4
  %11 = getelementptr inbounds nuw %struct.yyjson_alc, ptr %10, i32 0, i32 0
  %12 = load ptr, ptr %11, align 8, !tbaa !23
  %13 = load ptr, ptr %3, align 8, !tbaa !4
  %14 = getelementptr inbounds nuw %struct.yyjson_alc, ptr %13, i32 0, i32 3
  %15 = load ptr, ptr %14, align 8, !tbaa !27
  %16 = call ptr %12(ptr noundef %15, i64 noundef 120)
  store ptr %16, ptr %4, align 8, !tbaa !71
  %17 = load ptr, ptr %4, align 8, !tbaa !71
  %18 = icmp ne ptr %17, null
  br i1 %18, label %20, label %19

19:                                               ; preds = %9
  store ptr null, ptr %2, align 8
  store i32 1, ptr %5, align 4
  br label %38

20:                                               ; preds = %9
  %21 = load ptr, ptr %4, align 8, !tbaa !71
  call void @llvm.memset.p0.i64(ptr align 8 %21, i8 0, i64 120, i1 false)
  %22 = load ptr, ptr %4, align 8, !tbaa !71
  %23 = getelementptr inbounds nuw %struct.yyjson_mut_doc, ptr %22, i32 0, i32 1
  %24 = load ptr, ptr %3, align 8, !tbaa !4
  call void @llvm.memcpy.p0.p0.i64(ptr align 8 %23, ptr align 8 %24, i64 32, i1 false), !tbaa.struct !12
  %25 = load ptr, ptr %4, align 8, !tbaa !71
  %26 = getelementptr inbounds nuw %struct.yyjson_mut_doc, ptr %25, i32 0, i32 2
  %27 = getelementptr inbounds nuw %struct.yyjson_str_pool, ptr %26, i32 0, i32 2
  store i64 256, ptr %27, align 8, !tbaa !73
  %28 = load ptr, ptr %4, align 8, !tbaa !71
  %29 = getelementptr inbounds nuw %struct.yyjson_mut_doc, ptr %28, i32 0, i32 2
  %30 = getelementptr inbounds nuw %struct.yyjson_str_pool, ptr %29, i32 0, i32 3
  store i64 268435456, ptr %30, align 8, !tbaa !78
  %31 = load ptr, ptr %4, align 8, !tbaa !71
  %32 = getelementptr inbounds nuw %struct.yyjson_mut_doc, ptr %31, i32 0, i32 3
  %33 = getelementptr inbounds nuw %struct.yyjson_val_pool, ptr %32, i32 0, i32 2
  store i64 384, ptr %33, align 8, !tbaa !75
  %34 = load ptr, ptr %4, align 8, !tbaa !71
  %35 = getelementptr inbounds nuw %struct.yyjson_mut_doc, ptr %34, i32 0, i32 3
  %36 = getelementptr inbounds nuw %struct.yyjson_val_pool, ptr %35, i32 0, i32 3
  store i64 402653184, ptr %36, align 8, !tbaa !79
  %37 = load ptr, ptr %4, align 8, !tbaa !71
  store ptr %37, ptr %2, align 8
  store i32 1, ptr %5, align 4
  br label %38

38:                                               ; preds = %20, %19
  call void @llvm.lifetime.end.p0(i64 8, ptr %4) #13
  %39 = load ptr, ptr %2, align 8
  ret ptr %39
}