; Function Attrs: nounwind uwtable
define dso_local ptr @yyjson_mut_doc_new(ptr noundef readonly captures(address_is_null) %0) local_unnamed_addr #8 {
  %.not = icmp eq ptr %0, null
  %spec.store.select = select i1 %.not, ptr @YYJSON_DEFAULT_ALC, ptr %0
  %2 = load ptr, ptr %spec.store.select, align 8, !tbaa !18
  %3 = getelementptr inbounds nuw i8, ptr %spec.store.select, i64 24
  %4 = load ptr, ptr %3, align 8, !tbaa !22
  %5 = tail call ptr %2(ptr noundef %4, i64 noundef 120) #31
  %.not14 = icmp eq ptr %5, null
  br i1 %.not14, label %12, label %6

6:                                                ; preds = %1
  tail call void @llvm.memset.p0.i64(ptr noundef nonnull align 8 dereferenceable(120) %5, i8 0, i64 120, i1 false)
  %7 = getelementptr inbounds nuw i8, ptr %5, i64 8
  tail call void @llvm.memcpy.p0.p0.i64(ptr noundef nonnull align 8 dereferenceable(32) %7, ptr noundef nonnull align 8 dereferenceable(32) %spec.store.select, i64 32, i1 false), !tbaa.struct !5
  %8 = getelementptr inbounds nuw i8, ptr %5, i64 56
  store i64 256, ptr %8, align 8, !tbaa !62
  %9 = getelementptr inbounds nuw i8, ptr %5, i64 64
  store i64 268435456, ptr %9, align 8, !tbaa !67
  %10 = getelementptr inbounds nuw i8, ptr %5, i64 96
  store i64 384, ptr %10, align 8, !tbaa !64
  %11 = getelementptr inbounds nuw i8, ptr %5, i64 104
  store i64 402653184, ptr %11, align 8, !tbaa !68
  br label %12

12:                                               ; preds = %1, %6
  ret ptr %5
}